; Function Attrs: mustprogress uwtable
define dso_local void @_ZN24btSoftRigidDynamicsWorld19serializeSoftBodiesEP12btSerializer(ptr noundef nonnull readonly align 8 captures(none) dereferenceable(689) %0, ptr noundef %1) local_unnamed_addr #0 align 2 {
  %3 = getelementptr inbounds nuw i8, ptr %0, i64 12
  %4 = load i32, ptr %3, align 4, !tbaa !229
  %5 = icmp sgt i32 %4, 0
  br i1 %5, label %.lr.ph, label %._crit_edge

.lr.ph:                                           ; preds = %2
  %6 = getelementptr inbounds nuw i8, ptr %0, i64 24
  br label %7

7:                                                ; preds = %.lr.ph, %34
  %8 = phi i32 [ %4, %.lr.ph ], [ %35, %34 ]
  %indvars.iv = phi i64 [ 0, %.lr.ph ], [ %indvars.iv.next, %34 ]
  %9 = load ptr, ptr %6, align 8, !tbaa !230
  %10 = getelementptr inbounds nuw ptr, ptr %9, i64 %indvars.iv
  %11 = load ptr, ptr %10, align 8, !tbaa !231
  %12 = getelementptr inbounds nuw i8, ptr %11, i64 272
  %13 = load i32, ptr %12, align 8, !tbaa !195
  %14 = and i32 %13, 8
  %.not = icmp eq i32 %14, 0
  br i1 %.not, label %34, label %15

15:                                               ; preds = %7
  %16 = load ptr, ptr %11, align 8, !tbaa !4
  %17 = getelementptr inbounds nuw i8, ptr %16, i64 32
  %18 = load ptr, ptr %17, align 8
  %19 = tail call noundef i32 %18(ptr noundef nonnull align 8 dereferenceable(372) %11)
  %20 = sext i32 %19 to i64
  %21 = load ptr, ptr %1, align 8, !tbaa !4
  %22 = getelementptr inbounds nuw i8, ptr %21, i64 32
  %23 = load ptr, ptr %22, align 8
  %24 = tail call noundef ptr %23(ptr noundef nonnull align 8 dereferenceable(8) %1, i64 noundef %20, i32 noundef 1)
  %25 = getelementptr inbounds nuw i8, ptr %24, i64 8
  %26 = load ptr, ptr %25, align 8, !tbaa !232
  %27 = load ptr, ptr %11, align 8, !tbaa !4
  %28 = getelementptr inbounds nuw i8, ptr %27, i64 40
  %29 = load ptr, ptr %28, align 8
  %30 = tail call noundef ptr %29(ptr noundef nonnull align 8 dereferenceable(372) %11, ptr noundef %26, ptr noundef nonnull %1)
  %31 = load ptr, ptr %1, align 8, !tbaa !4
  %32 = getelementptr inbounds nuw i8, ptr %31, i64 40
  %33 = load ptr, ptr %32, align 8
  tail call void %33(ptr noundef nonnull align 8 dereferenceable(8) %1, ptr noundef %24, ptr noundef %30, i32 noundef 1497645651, ptr noundef nonnull %11)
  %.pre = load i32, ptr %3, align 4, !tbaa !229
  br label %34

34:                                               ; preds = %15, %7
  %35 = phi i32 [ %.pre, %15 ], [ %8, %7 ]
  %indvars.iv.next = add nuw nsw i64 %indvars.iv, 1
  %36 = sext i32 %35 to i64
  %37 = icmp slt i64 %indvars.iv.next, %36
  br i1 %37, label %7, label %._crit_edge, !llvm.loop !234

._crit_edge:                                      ; preds = %34, %2
  ret void
}